#include <math.h>
#include <stdio.h>
#include <stdlib.h>
#include <string.h>

int main()
{
	int n,a,b,c,d,e;
	scanf("%d",&n);
	a=n/10000;
	b=(n-a*10000)/1000;
	c=(n-a*10000-b*1000)/100;
	d=(n-a*10000-b*1000-c*100)/10;
	e=(n-a*10000-b*1000-c*100-d*10);
    if(a!=0&&b!=0&&c!=0&&d!=0&&e!=0)
	{
		printf("%d%d%d%d%d",e,d,c,b,a);
	}
	else if(a==0&&b!=0&&c!=0&&d!=0&&e!=0)
	{
		printf("%d%d%d%d",e,d,c,b);
	}
	else if(a==0&&b==0&&c!=0&&d!=0&&e!=0)
	{
		printf("%d%d%d",e,d,c);
	}
	else if(a==0&&b==0&&c==0&&d!=0&&e!=0)
	{
		printf("%d%d",e,d);
	}
	else if(a==0&&b==0&&c==0&&d==0&&e!=0)
	{
		printf("%d",e);
	}
	return 0;

	

}

