; ModuleID = '56/1377.c'
source_filename = "56/1377.c"
target datalayout = "e-m:e-p270:32:32-p271:32:32-p272:64:64-i64:64-f80:128-n8:16:32:64-S128"
target triple = "x86_64-pc-linux-gnu"

@.str = private unnamed_addr constant [3 x i8] c"%d\00", align 1
@.str.1 = private unnamed_addr constant [11 x i8] c"%d%d%d%d%d\00", align 1
@.str.2 = private unnamed_addr constant [9 x i8] c"%d%d%d%d\00", align 1
@.str.3 = private unnamed_addr constant [7 x i8] c"%d%d%d\00", align 1
@.str.4 = private unnamed_addr constant [5 x i8] c"%d%d\00", align 1

; Function Attrs: noinline nounwind uwtable
define dso_local i32 @main() #0 {
  %1 = alloca i32, align 4
  %2 = alloca i32, align 4
  %3 = alloca i32, align 4
  %4 = alloca i32, align 4
  %5 = alloca i32, align 4
  %6 = alloca i32, align 4
  %7 = alloca i32, align 4
  store i32 0, i32* %1, align 4
  %8 = call i32 (i8*, ...) @__isoc99_scanf(i8* getelementptr inbounds ([3 x i8], [3 x i8]* @.str, i64 0, i64 0), i32* %2)
  %9 = load i32, i32* %2, align 4
  %10 = sdiv i32 %9, 10000
  store i32 %10, i32* %3, align 4
  %11 = load i32, i32* %2, align 4
  %12 = load i32, i32* %3, align 4
  %13 = mul nsw i32 %12, 10000
  %14 = sub nsw i32 %11, %13
  %15 = sdiv i32 %14, 1000
  store i32 %15, i32* %4, align 4
  %16 = load i32, i32* %2, align 4
  %17 = load i32, i32* %3, align 4
  %18 = mul nsw i32 %17, 10000
  %19 = sub nsw i32 %16, %18
  %20 = load i32, i32* %4, align 4
  %21 = mul nsw i32 %20, 1000
  %22 = sub nsw i32 %19, %21
  %23 = sdiv i32 %22, 100
  store i32 %23, i32* %5, align 4
  %24 = load i32, i32* %2, align 4
  %25 = load i32, i32* %3, align 4
  %26 = mul nsw i32 %25, 10000
  %27 = sub nsw i32 %24, %26
  %28 = load i32, i32* %4, align 4
  %29 = mul nsw i32 %28, 1000
  %30 = sub nsw i32 %27, %29
  %31 = load i32, i32* %5, align 4
  %32 = mul nsw i32 %31, 100
  %33 = sub nsw i32 %30, %32
  %34 = sdiv i32 %33, 10
  store i32 %34, i32* %6, align 4
  %35 = load i32, i32* %2, align 4
  %36 = load i32, i32* %3, align 4
  %37 = mul nsw i32 %36, 10000
  %38 = sub nsw i32 %35, %37
  %39 = load i32, i32* %4, align 4
  %40 = mul nsw i32 %39, 1000
  %41 = sub nsw i32 %38, %40
  %42 = load i32, i32* %5, align 4
  %43 = mul nsw i32 %42, 100
  %44 = sub nsw i32 %41, %43
  %45 = load i32, i32* %6, align 4
  %46 = mul nsw i32 %45, 10
  %47 = sub nsw i32 %44, %46
  store i32 %47, i32* %7, align 4
  %48 = load i32, i32* %3, align 4
  %49 = icmp ne i32 %48, 0
  br i1 %49, label %50, label %69

50:                                               ; preds = %0
  %51 = load i32, i32* %4, align 4
  %52 = icmp ne i32 %51, 0
  br i1 %52, label %53, label %69

53:                                               ; preds = %50
  %54 = load i32, i32* %5, align 4
  %55 = icmp ne i32 %54, 0
  br i1 %55, label %56, label %69

56:                                               ; preds = %53
  %57 = load i32, i32* %6, align 4
  %58 = icmp ne i32 %57, 0
  br i1 %58, label %59, label %69

59:                                               ; preds = %56
  %60 = load i32, i32* %7, align 4
  %61 = icmp ne i32 %60, 0
  br i1 %61, label %62, label %69

62:                                               ; preds = %59
  %63 = load i32, i32* %7, align 4
  %64 = load i32, i32* %6, align 4
  %65 = load i32, i32* %5, align 4
  %66 = load i32, i32* %4, align 4
  %67 = load i32, i32* %3, align 4
  %68 = call i32 (i8*, ...) @printf(i8* getelementptr inbounds ([11 x i8], [11 x i8]* @.str.1, i64 0, i64 0), i32 %63, i32 %64, i32 %65, i32 %66, i32 %67)
  br label %151

69:                                               ; preds = %59, %56, %53, %50, %0
  %70 = load i32, i32* %3, align 4
  %71 = icmp eq i32 %70, 0
  br i1 %71, label %72, label %90

72:                                               ; preds = %69
  %73 = load i32, i32* %4, align 4
  %74 = icmp ne i32 %73, 0
  br i1 %74, label %75, label %90

75:                                               ; preds = %72
  %76 = load i32, i32* %5, align 4
  %77 = icmp ne i32 %76, 0
  br i1 %77, label %78, label %90

78:                                               ; preds = %75
  %79 = load i32, i32* %6, align 4
  %80 = icmp ne i32 %79, 0
  br i1 %80, label %81, label %90

81:                                               ; preds = %78
  %82 = load i32, i32* %7, align 4
  %83 = icmp ne i32 %82, 0
  br i1 %83, label %84, label %90

84:                                               ; preds = %81
  %85 = load i32, i32* %7, align 4
  %86 = load i32, i32* %6, align 4
  %87 = load i32, i32* %5, align 4
  %88 = load i32, i32* %4, align 4
  %89 = call i32 (i8*, ...) @printf(i8* getelementptr inbounds ([9 x i8], [9 x i8]* @.str.2, i64 0, i64 0), i32 %85, i32 %86, i32 %87, i32 %88)
  br label %150

90:                                               ; preds = %81, %78, %75, %72, %69
  %91 = load i32, i32* %3, align 4
  %92 = icmp eq i32 %91, 0
  br i1 %92, label %93, label %110

93:                                               ; preds = %90
  %94 = load i32, i32* %4, align 4
  %95 = icmp eq i32 %94, 0
  br i1 %95, label %96, label %110

96:                                               ; preds = %93
  %97 = load i32, i32* %5, align 4
  %98 = icmp ne i32 %97, 0
  br i1 %98, label %99, label %110

99:                                               ; preds = %96
  %100 = load i32, i32* %6, align 4
  %101 = icmp ne i32 %100, 0
  br i1 %101, label %102, label %110

102:                                              ; preds = %99
  %103 = load i32, i32* %7, align 4
  %104 = icmp ne i32 %103, 0
  br i1 %104, label %105, label %110

105:                                              ; preds = %102
  %106 = load i32, i32* %7, align 4
  %107 = load i32, i32* %6, align 4
  %108 = load i32, i32* %5, align 4
  %109 = call i32 (i8*, ...) @printf(i8* getelementptr inbounds ([7 x i8], [7 x i8]* @.str.3, i64 0, i64 0), i32 %106, i32 %107, i32 %108)
  br label %149

110:                                              ; preds = %102, %99, %96, %93, %90
  %111 = load i32, i32* %3, align 4
  %112 = icmp eq i32 %111, 0
  br i1 %112, label %113, label %129

113:                                              ; preds = %110
  %114 = load i32, i32* %4, align 4
  %115 = icmp eq i32 %114, 0
  br i1 %115, label %116, label %129

116:                                              ; preds = %113
  %117 = load i32, i32* %5, align 4
  %118 = icmp eq i32 %117, 0
  br i1 %118, label %119, label %129

119:                                              ; preds = %116
  %120 = load i32, i32* %6, align 4
  %121 = icmp ne i32 %120, 0
  br i1 %121, label %122, label %129

122:                                              ; preds = %119
  %123 = load i32, i32* %7, align 4
  %124 = icmp ne i32 %123, 0
  br i1 %124, label %125, label %129

125:                                              ; preds = %122
  %126 = load i32, i32* %7, align 4
  %127 = load i32, i32* %6, align 4
  %128 = call i32 (i8*, ...) @printf(i8* getelementptr inbounds ([5 x i8], [5 x i8]* @.str.4, i64 0, i64 0), i32 %126, i32 %127)
  br label %148

129:                                              ; preds = %122, %119, %116, %113, %110
  %130 = load i32, i32* %3, align 4
  %131 = icmp eq i32 %130, 0
  br i1 %131, label %132, label %147

132:                                              ; preds = %129
  %133 = load i32, i32* %4, align 4
  %134 = icmp eq i32 %133, 0
  br i1 %134, label %135, label %147

135:                                              ; preds = %132
  %136 = load i32, i32* %5, align 4
  %137 = icmp eq i32 %136, 0
  br i1 %137, label %138, label %147

138:                                              ; preds = %135
  %139 = load i32, i32* %6, align 4
  %140 = icmp eq i32 %139, 0
  br i1 %140, label %141, label %147

141:                                              ; preds = %138
  %142 = load i32, i32* %7, align 4
  %143 = icmp ne i32 %142, 0
  br i1 %143, label %144, label %147

144:                                              ; preds = %141
  %145 = load i32, i32* %7, align 4
  %146 = call i32 (i8*, ...) @printf(i8* getelementptr inbounds ([3 x i8], [3 x i8]* @.str, i64 0, i64 0), i32 %145)
  br label %147

147:                                              ; preds = %144, %141, %138, %135, %132, %129
  br label %148

148:                                              ; preds = %147, %125
  br label %149

149:                                              ; preds = %148, %105
  br label %150

150:                                              ; preds = %149, %84
  br label %151

151:                                              ; preds = %150, %62
  ret i32 0
}

declare dso_local i32 @__isoc99_scanf(i8*, ...) #1

declare dso_local i32 @printf(i8*, ...) #1


!llvm.module.flags = !{!0}
!llvm.ident = !{!1}

!0 = !{i32 1, !"wchar_size", i32 4}
!1 = !{!"clang version 10.0.0-4ubuntu1 "}
